target datalayout = "e-m:e-p270:32:32-p271:32:32-p272:64:64-i64:64-i128:128-f80:128-n8:16:32:64-S128"
target triple = "x86_64-pc-linux-gnu"

@param_table = internal global ptr null, align 8

; Function Attrs: inlinehint nounwind uwtable
define internal ptr @ossl_check_const_X509_VERIFY_PARAM_sk_type(ptr noundef %0) #3 {
  %2 = alloca ptr, align 8
  store ptr %0, ptr %2, align 8, !tbaa !45
  %3 = load ptr, ptr %2, align 8, !tbaa !45
  ret ptr %3
}

; Function Attrs: nounwind uwtable
define i32 @X509_VERIFY_PARAM_get_count() #0 {
  %1 = alloca i32, align 4
  call void @llvm.lifetime.start.p0(i64 4, ptr %1) #6
  store i32 6, ptr %1, align 4, !tbaa !28
  %2 = load ptr, ptr @param_table, align 8, !tbaa !45
  %3 = icmp ne ptr %2, null
  br i1 %3, label %4, label %10

4:                                                ; preds = %0
  %5 = load ptr, ptr @param_table, align 8, !tbaa !45
  %6 = call ptr @ossl_check_const_X509_VERIFY_PARAM_sk_type(ptr noundef %5)
  %7 = call i32 @OPENSSL_sk_num(ptr noundef %6)
  %8 = load i32, ptr %1, align 4, !tbaa !28
  %9 = add nsw i32 %8, %7
  store i32 %9, ptr %1, align 4, !tbaa !28
  br label %10

10:                                               ; preds = %4, %0
  %11 = load i32, ptr %1, align 4, !tbaa !28
  call void @llvm.lifetime.end.p0(i64 4, ptr %1) #6
  ret i32 %11
}