; Function Attrs: nounwind uwtable
define range(i32 -2147483642, -2147483648) i32 @X509_VERIFY_PARAM_get_count() local_unnamed_addr #0 {
  %1 = load ptr, ptr @param_table, align 8, !tbaa !33
  %.not = icmp eq ptr %1, null
  br i1 %.not, label %5, label %2

2:                                                ; preds = %0
  %3 = tail call i32 @OPENSSL_sk_num(ptr noundef nonnull %1) #9
  %4 = add nsw i32 %3, 6
  br label %5

5:                                                ; preds = %2, %0
  %.0 = phi i32 [ %4, %2 ], [ 6, %0 ]
  ret i32 %.0
}